; Function Attrs: nounwind uwtable
define hidden void @_ir_TAILCALL(ptr nocapture noundef %0, i32 noundef %1, i32 noundef %2) local_unnamed_addr #0 {
  %4 = getelementptr inbounds i8, ptr %0, i64 32
  %5 = load i32, ptr %4, align 8
  %6 = icmp eq i32 %5, -1
  br i1 %6, label %7, label %8

7:                                                ; preds = %3
  store i32 %1, ptr %4, align 8
  br label %8

8:                                                ; preds = %7, %3
  %9 = shl i32 %1, 8
  %10 = or i32 %9, 131142
  %11 = getelementptr inbounds i8, ptr %0, i64 248
  %12 = load i32, ptr %11, align 8
  %13 = getelementptr inbounds i8, ptr %0, i64 8
  %14 = load i32, ptr %13, align 8
  %15 = getelementptr inbounds i8, ptr %0, i64 12
  %16 = load i32, ptr %15, align 4
  %.not.i.i.i = icmp slt i32 %14, %16
  %.pre.i.i = load ptr, ptr %0, align 8
  br i1 %.not.i.i.i, label %ir_emit2.exit, label %17

17:                                               ; preds = %8
  %18 = getelementptr inbounds i8, ptr %0, i64 20
  %19 = load i32, ptr %18, align 4
  %20 = icmp slt i32 %16, 4096
  %21 = shl nsw i32 %16, 1
  %22 = icmp ult i32 %16, 8192
  %23 = add nuw nsw i32 %16, 4096
  %spec.select.i.i.i.i = select i1 %22, i32 8192, i32 %23
  %.sink.i.i.i.i = select i1 %20, i32 %21, i32 %spec.select.i.i.i.i
  store i32 %.sink.i.i.i.i, ptr %15, align 4
  %24 = sext i32 %19 to i64
  %25 = sub nsw i64 0, %24
  %26 = getelementptr inbounds %struct._ir_insn, ptr %.pre.i.i, i64 %25
  %27 = add nsw i32 %19, %.sink.i.i.i.i
  %28 = sext i32 %27 to i64
  %29 = shl nsw i64 %28, 4
  %30 = tail call ptr @_erealloc(ptr noundef %26, i64 noundef %29) #24
  %31 = load i32, ptr %18, align 4
  %32 = sext i32 %31 to i64
  %33 = getelementptr inbounds %struct._ir_insn, ptr %30, i64 %32
  store ptr %33, ptr %0, align 8
  br label %ir_emit2.exit

ir_emit2.exit:                                    ; preds = %8, %17
  %34 = phi ptr [ %.pre.i.i, %8 ], [ %33, %17 ]
  %35 = add nsw i32 %14, 1
  store i32 %35, ptr %13, align 8
  %36 = sext i32 %14 to i64
  %37 = getelementptr inbounds %struct._ir_insn, ptr %34, i64 %36
  store i32 %10, ptr %37, align 8
  %38 = getelementptr inbounds i8, ptr %37, i64 4
  store i32 %12, ptr %38, align 4
  %39 = getelementptr inbounds i8, ptr %37, i64 8
  store i32 %2, ptr %39, align 8
  %40 = getelementptr inbounds i8, ptr %37, i64 12
  store i32 0, ptr %40, align 4
  store i32 %14, ptr %11, align 8
  %41 = load ptr, ptr %0, align 8
  %42 = getelementptr inbounds i8, ptr %41, i64 20
  %43 = load i32, ptr %42, align 4
  %44 = load i32, ptr %13, align 8
  %45 = load i32, ptr %15, align 4
  %.not.i.i.i.i = icmp slt i32 %44, %45
  br i1 %.not.i.i.i.i, label %_ir_UNREACHABLE.exit, label %46

46:                                               ; preds = %ir_emit2.exit
  %47 = getelementptr inbounds i8, ptr %0, i64 20
  %48 = load i32, ptr %47, align 4
  %49 = icmp slt i32 %45, 4096
  %50 = shl nsw i32 %45, 1
  %51 = icmp ult i32 %45, 8192
  %52 = add nuw nsw i32 %45, 4096
  %spec.select.i.i.i.i.i = select i1 %51, i32 8192, i32 %52
  %.sink.i.i.i.i.i = select i1 %49, i32 %50, i32 %spec.select.i.i.i.i.i
  store i32 %.sink.i.i.i.i.i, ptr %15, align 4
  %53 = sext i32 %48 to i64
  %54 = sub nsw i64 0, %53
  %55 = getelementptr inbounds %struct._ir_insn, ptr %41, i64 %54
  %56 = add nsw i32 %48, %.sink.i.i.i.i.i
  %57 = sext i32 %56 to i64
  %58 = shl nsw i64 %57, 4
  %59 = tail call ptr @_erealloc(ptr noundef %55, i64 noundef %58) #24
  %60 = load i32, ptr %47, align 4
  %61 = sext i32 %60 to i64
  %62 = getelementptr inbounds %struct._ir_insn, ptr %59, i64 %61
  store ptr %62, ptr %0, align 8
  br label %_ir_UNREACHABLE.exit

_ir_UNREACHABLE.exit:                             ; preds = %ir_emit2.exit, %46
  %63 = phi ptr [ %41, %ir_emit2.exit ], [ %62, %46 ]
  %64 = add nsw i32 %44, 1
  store i32 %64, ptr %13, align 8
  %65 = sext i32 %44 to i64
  %66 = getelementptr inbounds %struct._ir_insn, ptr %63, i64 %65
  store i32 104, ptr %66, align 8
  %67 = getelementptr inbounds i8, ptr %66, i64 4
  store i32 %14, ptr %67, align 4
  %68 = getelementptr inbounds i8, ptr %66, i64 8
  store i32 0, ptr %68, align 8
  %69 = getelementptr inbounds i8, ptr %66, i64 12
  store i32 %43, ptr %69, align 4
  %70 = load ptr, ptr %0, align 8
  %71 = getelementptr inbounds i8, ptr %70, i64 20
  store i32 %44, ptr %71, align 4
  store i32 0, ptr %11, align 8
  ret void
}